target datalayout = "e-m:e-p270:32:32-p271:32:32-p272:64:64-i64:64-i128:128-f80:128-n8:16:32:64-S128"
target triple = "x86_64-pc-linux-gnu"

; Function Attrs: mustprogress uwtable
define void @_ZN6LibRaw22remove_trailing_spacesEPcm(ptr noundef %0, i64 noundef %1) #0 align 2 {
  %3 = alloca ptr, align 8
  %4 = alloca i64, align 8
  %5 = alloca i64, align 8
  %6 = alloca i32, align 4
  store ptr %0, ptr %3, align 8, !tbaa !89
  store i64 %1, ptr %4, align 8, !tbaa !92
  %7 = load i64, ptr %4, align 8, !tbaa !92
  %8 = icmp ult i64 %7, 1
  br i1 %8, label %9, label %10

9:                                                ; preds = %2
  br label %47

10:                                               ; preds = %2
  %11 = load ptr, ptr %3, align 8, !tbaa !89
  %12 = load i64, ptr %4, align 8, !tbaa !92
  %13 = sub i64 %12, 1
  %14 = getelementptr inbounds nuw i8, ptr %11, i64 %13
  store i8 0, ptr %14, align 1, !tbaa !76
  %15 = load i64, ptr %4, align 8, !tbaa !92
  %16 = icmp ult i64 %15, 3
  br i1 %16, label %17, label %18

17:                                               ; preds = %10
  br label %47

18:                                               ; preds = %10
  %19 = load ptr, ptr %3, align 8, !tbaa !89
  %20 = load i64, ptr %4, align 8, !tbaa !92
  %21 = sub i64 %20, 1
  %22 = call noundef i64 @_ZN6LibRaw7strnlenEPKcm(ptr noundef %19, i64 noundef %21)
  store i64 %22, ptr %4, align 8, !tbaa !92
  call void @llvm.lifetime.start.p0(i64 8, ptr %5) #8
  %23 = load i64, ptr %4, align 8, !tbaa !92
  %24 = sub i64 %23, 1
  store i64 %24, ptr %5, align 8, !tbaa !92
  br label %25

25:                                               ; preds = %43, %18
  %26 = load i64, ptr %5, align 8, !tbaa !92
  %27 = icmp uge i64 %26, 0
  br i1 %27, label %29, label %28

28:                                               ; preds = %25
  store i32 2, ptr %6, align 4
  br label %46

29:                                               ; preds = %25
  %30 = load ptr, ptr %3, align 8, !tbaa !89
  %31 = load i64, ptr %5, align 8, !tbaa !92
  %32 = getelementptr inbounds nuw i8, ptr %30, i64 %31
  %33 = load i8, ptr %32, align 1, !tbaa !76
  %34 = zext i8 %33 to i32
  %35 = call i32 @isspace(i32 noundef %34) #9
  %36 = icmp ne i32 %35, 0
  br i1 %36, label %37, label %41

37:                                               ; preds = %29
  %38 = load ptr, ptr %3, align 8, !tbaa !89
  %39 = load i64, ptr %5, align 8, !tbaa !92
  %40 = getelementptr inbounds nuw i8, ptr %38, i64 %39
  store i8 0, ptr %40, align 1, !tbaa !76
  br label %42

41:                                               ; preds = %29
  store i32 2, ptr %6, align 4
  br label %46

42:                                               ; preds = %37
  br label %43

43:                                               ; preds = %42
  %44 = load i64, ptr %5, align 8, !tbaa !92
  %45 = add i64 %44, -1
  store i64 %45, ptr %5, align 8, !tbaa !92
  br label %25, !llvm.loop !93

46:                                               ; preds = %41, %28
  call void @llvm.lifetime.end.p0(i64 8, ptr %5) #8
  br label %47

47:                                               ; preds = %9, %17, %46
  ret void
}