; Function Attrs: mustprogress uwtable
define void @_ZN6LibRaw22remove_trailing_spacesEPcm(ptr noundef %0, i64 noundef %1) local_unnamed_addr #0 align 2 {
  %3 = icmp eq i64 %1, 0
  br i1 %3, label %.loopexit, label %4

4:                                                ; preds = %2
  %5 = add i64 %1, -1
  %6 = getelementptr inbounds nuw i8, ptr %0, i64 %5
  store i8 0, ptr %6, align 1, !tbaa !73
  %7 = icmp ult i64 %1, 3
  br i1 %7, label %.loopexit, label %8

8:                                                ; preds = %4
  %9 = tail call noundef i64 @_ZN6LibRaw7strnlenEPKcm(ptr noundef nonnull %0, i64 noundef %5)
  %.013 = add i64 %9, -1
  %10 = getelementptr inbounds nuw i8, ptr %0, i64 %.013
  %11 = load i8, ptr %10, align 1, !tbaa !73
  %12 = zext i8 %11 to i32
  %13 = tail call i32 @isspace(i32 noundef %12) #12
  %.not14 = icmp eq i32 %13, 0
  br i1 %.not14, label %.loopexit, label %.lr.ph

.lr.ph:                                           ; preds = %8, %.lr.ph
  %14 = phi ptr [ %15, %.lr.ph ], [ %10, %8 ]
  %.015 = phi i64 [ %.0, %.lr.ph ], [ %.013, %8 ]
  store i8 0, ptr %14, align 1, !tbaa !73
  %.0 = add i64 %.015, -1
  %15 = getelementptr inbounds nuw i8, ptr %0, i64 %.0
  %16 = load i8, ptr %15, align 1, !tbaa !73
  %17 = zext i8 %16 to i32
  %18 = tail call i32 @isspace(i32 noundef %17) #12
  %.not = icmp eq i32 %18, 0
  br i1 %.not, label %.loopexit, label %.lr.ph, !llvm.loop !87

.loopexit:                                        ; preds = %.lr.ph, %8, %4, %2
  ret void
}